target datalayout = "e-m:e-p270:32:32-p271:32:32-p272:64:64-i64:64-i128:128-f80:128-n8:16:32:64-S128"
target triple = "x86_64-pc-linux-gnu"

%"class.std::unique_ptr" = type { %"struct.std::__uniq_ptr_data" }
%"struct.std::__uniq_ptr_data" = type { %"class.std::__uniq_ptr_impl" }
%"class.std::__uniq_ptr_impl" = type { %"class.std::tuple" }
%"class.std::tuple" = type { %"struct.std::_Tuple_impl" }
%"struct.std::_Tuple_impl" = type { %"struct.std::_Head_base.1" }
%"struct.std::_Head_base.1" = type { ptr }
%"class.g2o::cholmod::Cholmod" = type { %"class.std::unique_ptr" }
%"class.g2o::cholmod::Cholmod::Impl" = type { %struct.cholmod_common_struct, %"struct.g2o::cholmod::CholmodExt", ptr }
%struct.cholmod_common_struct = type { double, double, double, i64, i64, double, i32, i32, i32, i32, i32, i32, i32, [3 x double], [3 x i64], i32, i32, i32, i32, i32, i32, i32, ptr, i32, i32, i32, [10 x %"struct.cholmod_common_struct::cholmod_method_struct"], i32, i32, double, double, i64, i64, i64, i64, i64, ptr, ptr, ptr, ptr, i32, i32, i32, i32, double, double, double, double, i64, i64, i64, double, double, double, double, double, i32, i32, double, double, i32, i32, double, double, double, double, double, double, double, [10 x i64], i32, i64, double, i64, double, i64, i32, ptr, [8 x ptr], [3 x ptr], ptr, [8 x ptr], ptr, i64, ptr, i64, i64, i32, double, double, double, double, double, double, double, double, double, double, double, i64, i64, i64, i64, i64, i64, i64, i64 }
%"struct.cholmod_common_struct::cholmod_method_struct" = type { double, double, double, double, double, [4 x double], i64, [4 x i64], i32, i32, i32, i32, i32, i32, [4 x i64] }
%"struct.g2o::cholmod::CholmodExt" = type { %struct.cholmod_sparse_struct, i64 }
%struct.cholmod_sparse_struct = type { i64, i64, i64, ptr, ptr, ptr, ptr, ptr, i32, i32, i32, i32, i32, i32 }
%"struct.g2o::cholmod::Cholmod::SparseView" = type { ptr, ptr, ptr, ptr, ptr, ptr, ptr }

; Function Attrs: mustprogress nounwind uwtable
define linkonce_odr noundef nonnull align 8 dereferenceable(8) ptr @_ZNSt10_Head_baseILm0EPN3g2o7cholmod7Cholmod4ImplELb0EE7_M_headERKS5_(ptr noundef nonnull align 8 dereferenceable(8) %0) #2 comdat align 2 {
  %2 = alloca ptr, align 8
  store ptr %0, ptr %2, align 8, !tbaa !88
  %3 = load ptr, ptr %2, align 8, !tbaa !88
  %4 = getelementptr inbounds nuw %"struct.std::_Head_base.1", ptr %3, i32 0, i32 0
  ret ptr %4
}

; Function Attrs: mustprogress nounwind uwtable
define linkonce_odr noundef nonnull align 8 dereferenceable(8) ptr @_ZNSt11_Tuple_implILm0EJPN3g2o7cholmod7Cholmod4ImplESt14default_deleteIS3_EEE7_M_headERKS7_(ptr noundef nonnull align 8 dereferenceable(8) %0) #2 comdat align 2 {
  %2 = alloca ptr, align 8
  store ptr %0, ptr %2, align 8, !tbaa !84
  %3 = load ptr, ptr %2, align 8, !tbaa !84
  %4 = call noundef nonnull align 8 dereferenceable(8) ptr @_ZNSt10_Head_baseILm0EPN3g2o7cholmod7Cholmod4ImplELb0EE7_M_headERKS5_(ptr noundef nonnull align 8 dereferenceable(8) %3) #10
  ret ptr %4
}

; Function Attrs: mustprogress nounwind uwtable
define linkonce_odr noundef nonnull align 8 dereferenceable(8) ptr @_ZSt12__get_helperILm0EPN3g2o7cholmod7Cholmod4ImplEJSt14default_deleteIS3_EEERKT0_RKSt11_Tuple_implIXT_EJS7_DpT1_EE(ptr noundef nonnull align 8 dereferenceable(8) %0) #2 comdat {
  %2 = alloca ptr, align 8
  store ptr %0, ptr %2, align 8, !tbaa !84
  %3 = load ptr, ptr %2, align 8, !tbaa !84
  %4 = call noundef nonnull align 8 dereferenceable(8) ptr @_ZNSt11_Tuple_implILm0EJPN3g2o7cholmod7Cholmod4ImplESt14default_deleteIS3_EEE7_M_headERKS7_(ptr noundef nonnull align 8 dereferenceable(8) %3) #10
  ret ptr %4
}

; Function Attrs: mustprogress nounwind uwtable
define linkonce_odr noundef nonnull align 8 dereferenceable(8) ptr @_ZSt3getILm0EJPN3g2o7cholmod7Cholmod4ImplESt14default_deleteIS3_EEERKNSt13tuple_elementIXT_ESt5tupleIJDpT0_EEE4typeERKSB_(ptr noundef nonnull align 8 dereferenceable(8) %0) #2 comdat {
  %2 = alloca ptr, align 8
  store ptr %0, ptr %2, align 8, !tbaa !82
  %3 = load ptr, ptr %2, align 8, !tbaa !82
  %4 = call noundef nonnull align 8 dereferenceable(8) ptr @_ZSt12__get_helperILm0EPN3g2o7cholmod7Cholmod4ImplEJSt14default_deleteIS3_EEERKT0_RKSt11_Tuple_implIXT_EJS7_DpT1_EE(ptr noundef nonnull align 8 dereferenceable(8) %3) #10
  ret ptr %4
}

; Function Attrs: mustprogress nounwind uwtable
define linkonce_odr noundef ptr @_ZNKSt15__uniq_ptr_implIN3g2o7cholmod7Cholmod4ImplESt14default_deleteIS3_EE6_M_ptrEv(ptr noundef nonnull align 8 dereferenceable(8) %0) #2 comdat align 2 {
  %2 = alloca ptr, align 8
  store ptr %0, ptr %2, align 8, !tbaa !80
  %3 = load ptr, ptr %2, align 8
  %4 = getelementptr inbounds nuw %"class.std::__uniq_ptr_impl", ptr %3, i32 0, i32 0
  %5 = call noundef nonnull align 8 dereferenceable(8) ptr @_ZSt3getILm0EJPN3g2o7cholmod7Cholmod4ImplESt14default_deleteIS3_EEERKNSt13tuple_elementIXT_ESt5tupleIJDpT0_EEE4typeERKSB_(ptr noundef nonnull align 8 dereferenceable(8) %4) #10
  %6 = load ptr, ptr %5, align 8, !tbaa !12
  ret ptr %6
}

; Function Attrs: mustprogress nounwind uwtable
define linkonce_odr noundef ptr @_ZNKSt10unique_ptrIN3g2o7cholmod7Cholmod4ImplESt14default_deleteIS3_EE3getEv(ptr noundef nonnull align 8 dereferenceable(8) %0) #2 comdat align 2 {
  %2 = alloca ptr, align 8
  store ptr %0, ptr %2, align 8, !tbaa !8
  %3 = load ptr, ptr %2, align 8
  %4 = getelementptr inbounds nuw %"class.std::unique_ptr", ptr %3, i32 0, i32 0
  %5 = call noundef ptr @_ZNKSt15__uniq_ptr_implIN3g2o7cholmod7Cholmod4ImplESt14default_deleteIS3_EE6_M_ptrEv(ptr noundef nonnull align 8 dereferenceable(8) %4) #10
  ret ptr %5
}

; Function Attrs: mustprogress nounwind uwtable
define linkonce_odr noundef ptr @_ZNKSt10unique_ptrIN3g2o7cholmod7Cholmod4ImplESt14default_deleteIS3_EEptEv(ptr noundef nonnull align 8 dereferenceable(8) %0) #2 comdat align 2 {
  %2 = alloca ptr, align 8
  store ptr %0, ptr %2, align 8, !tbaa !8
  %3 = load ptr, ptr %2, align 8
  %4 = call noundef ptr @_ZNKSt10unique_ptrIN3g2o7cholmod7Cholmod4ImplESt14default_deleteIS3_EE3getEv(ptr noundef nonnull align 8 dereferenceable(8) %3) #10
  ret ptr %4
}

; Function Attrs: mustprogress uwtable
define noundef zeroext i1 @_ZN3g2o7cholmod7Cholmod3amdERNS1_10SparseViewEPi(ptr noundef nonnull align 8 dereferenceable(8) %0, ptr noundef nonnull align 8 dereferenceable(56) %1, ptr noundef %2) #0 align 2 {
  %4 = alloca ptr, align 8
  %5 = alloca ptr, align 8
  %6 = alloca ptr, align 8
  %7 = alloca %struct.cholmod_sparse_struct, align 8
  %8 = alloca i32, align 4
  store ptr %0, ptr %4, align 8, !tbaa !3
  store ptr %1, ptr %5, align 8, !tbaa !23
  store ptr %2, ptr %6, align 8, !tbaa !25
  %9 = load ptr, ptr %4, align 8
  call void @llvm.lifetime.start.p0(i64 88, ptr %7) #10
  %10 = load ptr, ptr %5, align 8, !tbaa !23
  %11 = getelementptr inbounds nuw %"struct.g2o::cholmod::Cholmod::SparseView", ptr %10, i32 0, i32 2
  %12 = load ptr, ptr %11, align 8, !tbaa !27
  %13 = load i64, ptr %12, align 8, !tbaa !32
  %14 = getelementptr inbounds nuw %struct.cholmod_sparse_struct, ptr %7, i32 0, i32 2
  store i64 %13, ptr %14, align 8, !tbaa !33
  %15 = load ptr, ptr %5, align 8, !tbaa !23
  %16 = getelementptr inbounds nuw %"struct.g2o::cholmod::Cholmod::SparseView", ptr %15, i32 0, i32 0
  %17 = load ptr, ptr %16, align 8, !tbaa !34
  %18 = load i64, ptr %17, align 8, !tbaa !32
  %19 = getelementptr inbounds nuw %struct.cholmod_sparse_struct, ptr %7, i32 0, i32 0
  store i64 %18, ptr %19, align 8, !tbaa !35
  %20 = load ptr, ptr %5, align 8, !tbaa !23
  %21 = getelementptr inbounds nuw %"struct.g2o::cholmod::Cholmod::SparseView", ptr %20, i32 0, i32 1
  %22 = load ptr, ptr %21, align 8, !tbaa !36
  %23 = load i64, ptr %22, align 8, !tbaa !32
  %24 = getelementptr inbounds nuw %struct.cholmod_sparse_struct, ptr %7, i32 0, i32 1
  store i64 %23, ptr %24, align 8, !tbaa !37
  %25 = load ptr, ptr %5, align 8, !tbaa !23
  %26 = getelementptr inbounds nuw %"struct.g2o::cholmod::Cholmod::SparseView", ptr %25, i32 0, i32 3
  %27 = load ptr, ptr %26, align 8, !tbaa !38
  %28 = load ptr, ptr %27, align 8, !tbaa !25
  %29 = getelementptr inbounds nuw %struct.cholmod_sparse_struct, ptr %7, i32 0, i32 3
  store ptr %28, ptr %29, align 8, !tbaa !39
  %30 = load ptr, ptr %5, align 8, !tbaa !23
  %31 = getelementptr inbounds nuw %"struct.g2o::cholmod::Cholmod::SparseView", ptr %30, i32 0, i32 4
  %32 = load ptr, ptr %31, align 8, !tbaa !40
  %33 = load ptr, ptr %32, align 8, !tbaa !25
  %34 = getelementptr inbounds nuw %struct.cholmod_sparse_struct, ptr %7, i32 0, i32 4
  store ptr %33, ptr %34, align 8, !tbaa !41
  %35 = getelementptr inbounds nuw %struct.cholmod_sparse_struct, ptr %7, i32 0, i32 5
  store ptr null, ptr %35, align 8, !tbaa !42
  %36 = getelementptr inbounds nuw %struct.cholmod_sparse_struct, ptr %7, i32 0, i32 6
  store ptr null, ptr %36, align 8, !tbaa !43
  %37 = getelementptr inbounds nuw %struct.cholmod_sparse_struct, ptr %7, i32 0, i32 7
  store ptr null, ptr %37, align 8, !tbaa !44
  %38 = getelementptr inbounds nuw %struct.cholmod_sparse_struct, ptr %7, i32 0, i32 8
  store i32 1, ptr %38, align 8, !tbaa !45
  %39 = getelementptr inbounds nuw %struct.cholmod_sparse_struct, ptr %7, i32 0, i32 10
  store i32 0, ptr %39, align 8, !tbaa !46
  %40 = getelementptr inbounds nuw %struct.cholmod_sparse_struct, ptr %7, i32 0, i32 9
  store i32 0, ptr %40, align 4, !tbaa !47
  %41 = getelementptr inbounds nuw %struct.cholmod_sparse_struct, ptr %7, i32 0, i32 11
  store i32 0, ptr %41, align 4, !tbaa !48
  %42 = getelementptr inbounds nuw %struct.cholmod_sparse_struct, ptr %7, i32 0, i32 12
  store i32 1, ptr %42, align 8, !tbaa !49
  %43 = getelementptr inbounds nuw %struct.cholmod_sparse_struct, ptr %7, i32 0, i32 13
  store i32 1, ptr %43, align 4, !tbaa !50
  call void @llvm.lifetime.start.p0(i64 4, ptr %8) #10
  %44 = load ptr, ptr %6, align 8, !tbaa !25
  %45 = getelementptr inbounds nuw %"class.g2o::cholmod::Cholmod", ptr %9, i32 0, i32 0
  %46 = call noundef ptr @_ZNKSt10unique_ptrIN3g2o7cholmod7Cholmod4ImplESt14default_deleteIS3_EEptEv(ptr noundef nonnull align 8 dereferenceable(8) %45) #10
  %47 = getelementptr inbounds nuw %"class.g2o::cholmod::Cholmod::Impl", ptr %46, i32 0, i32 0
  %48 = call i32 @cholmod_amd(ptr noundef %7, ptr noundef null, i64 noundef 0, ptr noundef %44, ptr noundef %47)
  store i32 %48, ptr %8, align 4, !tbaa !51
  %49 = load i32, ptr %8, align 4, !tbaa !51
  %50 = icmp ne i32 %49, 0
  call void @llvm.lifetime.end.p0(i64 4, ptr %8) #10
  call void @llvm.lifetime.end.p0(i64 88, ptr %7) #10
  ret i1 %50
}