; Function Attrs: mustprogress uwtable
define noundef zeroext i1 @_ZN3g2o7cholmod7Cholmod3amdERNS1_10SparseViewEPi(ptr noundef nonnull readonly align 8 captures(none) dereferenceable(8) %0, ptr noundef nonnull readonly align 8 captures(none) dereferenceable(56) %1, ptr noundef %2) local_unnamed_addr #0 align 2 {
  %4 = alloca %struct.cholmod_sparse_struct, align 8
  call void @llvm.lifetime.start.p0(i64 88, ptr nonnull %4) #15
  %5 = getelementptr inbounds nuw i8, ptr %1, i64 16
  %6 = load ptr, ptr %5, align 8, !tbaa !31
  %7 = load i64, ptr %6, align 8, !tbaa !36
  %8 = getelementptr inbounds nuw i8, ptr %4, i64 16
  store i64 %7, ptr %8, align 8, !tbaa !37
  %9 = load ptr, ptr %1, align 8, !tbaa !38
  %10 = load i64, ptr %9, align 8, !tbaa !36
  store i64 %10, ptr %4, align 8, !tbaa !39
  %11 = getelementptr inbounds nuw i8, ptr %1, i64 8
  %12 = load ptr, ptr %11, align 8, !tbaa !40
  %13 = load i64, ptr %12, align 8, !tbaa !36
  %14 = getelementptr inbounds nuw i8, ptr %4, i64 8
  store i64 %13, ptr %14, align 8, !tbaa !41
  %15 = getelementptr inbounds nuw i8, ptr %1, i64 24
  %16 = load ptr, ptr %15, align 8, !tbaa !42
  %17 = load ptr, ptr %16, align 8, !tbaa !43
  %18 = getelementptr inbounds nuw i8, ptr %4, i64 24
  store ptr %17, ptr %18, align 8, !tbaa !45
  %19 = getelementptr inbounds nuw i8, ptr %1, i64 32
  %20 = load ptr, ptr %19, align 8, !tbaa !46
  %21 = load ptr, ptr %20, align 8, !tbaa !43
  %22 = getelementptr inbounds nuw i8, ptr %4, i64 32
  store ptr %21, ptr %22, align 8, !tbaa !47
  %23 = getelementptr inbounds nuw i8, ptr %4, i64 40
  %24 = getelementptr inbounds nuw i8, ptr %4, i64 64
  call void @llvm.memset.p0.i64(ptr noundef nonnull align 8 dereferenceable(24) %23, i8 0, i64 24, i1 false)
  store i32 1, ptr %24, align 8, !tbaa !14
  %25 = getelementptr inbounds nuw i8, ptr %4, i64 72
  store i32 0, ptr %25, align 8, !tbaa !16
  %26 = getelementptr inbounds nuw i8, ptr %4, i64 68
  store i32 0, ptr %26, align 4, !tbaa !15
  %27 = getelementptr inbounds nuw i8, ptr %4, i64 76
  store i32 0, ptr %27, align 4, !tbaa !17
  %28 = getelementptr inbounds nuw i8, ptr %4, i64 80
  store i32 1, ptr %28, align 8, !tbaa !18
  %29 = getelementptr inbounds nuw i8, ptr %4, i64 84
  store i32 1, ptr %29, align 4, !tbaa !19
  %30 = load ptr, ptr %0, align 8, !tbaa !29
  %31 = call i32 @cholmod_amd(ptr noundef nonnull %4, ptr noundef null, i64 noundef 0, ptr noundef %2, ptr noundef %30)
  %32 = icmp ne i32 %31, 0
  call void @llvm.lifetime.end.p0(i64 88, ptr nonnull %4) #15
  ret i1 %32
}